Certificate:
    Data:
        Version: 3 (0x2)
        Serial Number:
            fc:d0:95:1f:1e:78:d6:db
        Signature Algorithm: sha1WithRSAEncryption
        Issuer: CN=QUIC Server Root CA
        Validity
            Not Before: Jan 21 06:08:34 2016 GMT
            Not After : Jan 24 06:08:34 2016 GMT
        Subject: CN=QUIC Server Root CA
        Subject Public Key Info:
            Public Key Algorithm: rsaEncryption
            RSA Public Key: (2048 bit)
                Modulus (2048 bit):
                    00:bb:14:da:e6:23:49:27:0e:a1:33:6d:c3:bc:91:
                    5a:98:60:e3:af:ae:fc:71:b8:0f:e8:81:4e:fd:c7:
                    9a:7a:1c:c6:22:8c:36:d9:aa:cb:8f:d9:a8:7e:6e:
                    59:9e:bf:45:0f:6e:19:9e:b6:45:8e:97:69:a6:05:
                    ba:07:03:a2:f3:b9:fc:e9:a8:4d:cd:e6:4a:d7:0c:
                    f2:64:6a:c2:65:fd:43:34:94:ec:ee:6f:e4:6d:81:
                    6b:2e:02:ce:0f:2f:28:66:51:24:f1:fc:e9:0a:57:
                    59:d7:2e:61:9c:9a:26:5a:a9:a1:bc:ba:d7:1c:53:
                    c6:de:98:db:9a:5b:60:fe:f8:f2:02:db:6b:75:9c:
                    63:cc:e0:af:f8:36:cb:30:d8:60:b7:96:d5:da:d8:
                    0e:d8:a0:b2:d4:fe:22:ed:e1:e5:cc:6d:af:f1:03:
                    d5:84:93:50:8c:4e:4c:fa:67:02:e4:f3:70:9f:61:
                    1a:8e:99:35:75:d6:a4:db:ee:ca:78:b0:ca:3f:1a:
                    25:71:aa:a3:c6:cc:4b:4b:22:62:8f:ed:16:4a:08:
                    26:b6:d0:71:b4:28:7d:db:19:9d:e3:3e:bf:f5:82:
                    5d:de:1f:87:aa:ce:06:2e:18:3c:b6:46:ea:12:5c:
                    07:0b:de:84:69:55:14:e6:d1:70:68:4f:5f:76:d1:
                    1d:a9
                Exponent: 65537 (0x10001)
        X509v3 extensions:
            X509v3 Basic Constraints: critical
                CA:TRUE
            X509v3 Subject Key Identifier: 
                CD:A4:0C:3E:3C:D0:E9:6E:7D:16:7F:02:B4:85:25:A9:29:00:23:83
            X509v3 Key Usage: critical
                Certificate Sign, CRL Sign
    Signature Algorithm: sha1WithRSAEncryption
        6b:fe:59:41:1d:47:fc:20:9c:b5:21:38:9b:03:e4:c3:76:72:
        17:20:1c:7f:c4:b0:5b:09:22:61:f2:a6:6e:4a:ca:05:0f:4d:
        d9:eb:f5:d0:63:08:ff:66:9b:00:c7:f8:bc:a1:87:97:4b:cb:
        ef:6b:f9:b1:a2:aa:76:3a:d7:03:85:19:51:22:85:0d:66:6a:
        e5:09:d2:99:0f:45:73:2f:c6:2a:35:d7:a6:be:76:0d:e1:05:
        29:30:2e:3d:0a:c1:88:75:17:9e:70:4f:df:31:5e:c4:b4:be:
        7a:47:17:24:43:b3:a9:a4:92:2c:7c:50:7d:41:c1:58:41:c0:
        6f:2e:1e:5e:22:07:74:b7:9e:66:6b:90:1f:7a:eb:a1:45:3c:
        6b:86:14:02:d6:3c:f6:48:31:b2:c9:f7:1b:3a:00:ed:77:95:
        af:ad:35:2d:d9:ca:ca:56:6e:15:c9:50:b9:e6:55:b5:16:eb:
        e9:cc:81:0e:40:8e:a8:fd:84:d4:37:2c:52:32:c2:56:46:ea:
        0c:c0:55:15:90:1c:97:d9:b7:c4:82:cd:46:52:23:bc:0f:73:
        9d:20:73:cd:48:f6:6e:4d:03:6b:52:f3:20:5c:74:36:cd:7b:
        90:f9:5b:e6:2c:83:9b:ed:ff:3e:b1:db:b5:18:bb:97:83:e1:
        52:b7:53:91
-----BEGIN CERTIFICATE-----
MIIDATCCAemgAwIBAgIJAPzQlR8eeNbbMA0GCSqGSIb3DQEBBQUAMB4xHDAaBgNV
BAMME1FVSUMgU2VydmVyIFJvb3QgQ0EwHhcNMTYwMTIxMDYwODM0WhcNMTYwMTI0
MDYwODM0WjAeMRwwGgYDVQQDDBNRVUlDIFNlcnZlciBSb290IENBMIIBIjANBgkq
hkiG9w0BAQEFAAOCAQ8AMIIBCgKCAQEAuxTa5iNJJw6hM23DvJFamGDjr678cbgP
6IFO/ceaehzGIow22arLj9mofm5Znr9FD24ZnrZFjpdppgW6BwOi87n86ahNzeZK
1wzyZGrCZf1DNJTs7m/kbYFrLgLODy8oZlEk8fzpCldZ1y5hnJomWqmhvLrXHFPG
3pjbmltg/vjyAttrdZxjzOCv+DbLMNhgt5bV2tgO2KCy1P4i7eHlzG2v8QPVhJNQ
jE5M+mcC5PNwn2Eajpk1ddak2+7KeLDKPxolcaqjxsxLSyJij+0WSggmttBxtCh9
2xmd4z6/9YJd3h+Hqs4GLhg8tkbqElwHC96EaVUU5tFwaE9fdtEdqQIDAQABo0Iw
QDAPBgNVHRMBAf8EBTADAQH/MB0GA1UdDgQWBBTNpAw+PNDpbn0WfwK0hSWpKQAj
gzAOBgNVHQ8BAf8EBAMCAQYwDQYJKoZIhvcNAQEFBQADggEBAGv+WUEdR/wgnLUh
OJsD5MN2chcgHH/EsFsJImHypm5KygUPTdnr9dBjCP9mmwDH+Lyhh5dLy+9r+bGi
qnY61wOFGVEihQ1mauUJ0pkPRXMvxio116a+dg3hBSkwLj0KwYh1F55wT98xXsS0
vnpHFyRDs6mkkix8UH1BwVhBwG8uHl4iB3S3nmZrkB9666FFPGuGFALWPPZIMbLJ
9xs6AO13la+tNS3ZyspWbhXJULnmVbUW6+nMgQ5Ajqj9hNQ3LFIywlZG6gzAVRWQ
HJfZt8SCzUZSI7wPc50gc81I9m5NA2tS8yBcdDbNe5D5W+Ysg5vt/z6x27UYu5eD
4VK3U5E=
-----END CERTIFICATE-----
