Certificate:
    Data:
        Version: 3 (0x2)
        Serial Number: 1 (0x1)
        Signature Algorithm: sha256WithRSAEncryption
        Issuer: CN=QUIC Server Root CA
        Validity
            Not Before: Jan 21 06:08:35 2016 GMT
            Not After : Jan 24 06:08:35 2016 GMT
        Subject: C=US, ST=California, L=Mountain View, O=QUIC Server, CN=127.0.0.1
        Subject Public Key Info:
            Public Key Algorithm: rsaEncryption
            RSA Public Key: (2048 bit)
                Modulus (2048 bit):
                    00:b2:db:dd:f4:8c:19:d3:a4:21:ba:14:d2:50:8d:
                    91:d4:78:ad:59:14:68:17:f2:06:b6:7e:d5:4c:e9:
                    8e:52:30:7d:20:1f:5d:9d:08:24:b3:8b:3b:94:02:
                    c3:ae:78:a5:26:3e:3b:7c:03:5b:26:1f:bf:ef:91:
                    00:9a:7a:24:ff:7e:12:a3:d9:d2:ef:eb:14:b8:c6:
                    5d:7c:91:9f:9d:77:19:b7:07:83:66:e5:1b:00:6c:
                    81:c5:6a:24:fc:53:02:43:2c:37:85:d4:b3:2e:86:
                    69:c0:7b:be:ad:1f:82:18:02:62:96:4a:49:ab:68:
                    21:ff:8d:32:14:6d:84:89:7d:58:de:b7:66:82:78:
                    be:b5:f3:46:4c:5c:bd:9e:4b:80:f1:09:7b:c2:13:
                    81:39:4f:d9:78:dc:2a:77:b0:d3:38:e5:ca:f5:3e:
                    a8:e1:15:14:ed:68:a7:f0:3a:59:1f:11:e6:e7:01:
                    20:25:ee:3a:0c:1a:f2:2a:dd:7b:af:e1:75:59:6f:
                    7c:e9:d2:4c:56:81:38:82:bd:44:63:43:02:30:9e:
                    d3:f5:51:29:41:f1:36:1a:3c:2c:51:0b:62:cb:37:
                    df:85:fe:6b:6f:11:99:61:bc:47:c8:66:1c:72:ed:
                    44:39:09:76:39:e1:f6:fc:7a:b0:e8:de:be:f1:90:
                    86:13
                Exponent: 65537 (0x10001)
        X509v3 extensions:
            X509v3 Basic Constraints: critical
                CA:FALSE
            X509v3 Subject Key Identifier: 
                48:7C:4B:81:83:68:AC:11:18:0D:F6:A7:48:74:00:6A:2F:93:55:7A
            X509v3 Authority Key Identifier: 
                keyid:CD:A4:0C:3E:3C:D0:E9:6E:7D:16:7F:02:B4:85:25:A9:29:00:23:83

            X509v3 Extended Key Usage: 
                TLS Web Server Authentication, TLS Web Client Authentication
            X509v3 Subject Alternative Name: 
                DNS:www.example.org, DNS:mail.example.org, DNS:mail.example.com, IP Address:127.0.0.1
    Signature Algorithm: sha256WithRSAEncryption
        40:d8:bb:6c:e8:4a:b5:0c:48:5d:34:b0:12:c9:3b:31:0c:7c:
        f3:94:67:eb:9b:9a:03:af:3b:49:60:00:88:64:db:6c:5c:31:
        b6:ab:b2:45:6d:6e:55:8b:05:65:46:0d:d7:a4:32:a4:a5:22:
        c5:1f:7b:d3:73:77:43:4b:62:7f:24:cb:f8:de:4d:bc:01:df:
        43:e7:15:a1:ca:f1:9f:f9:fe:85:2e:3e:61:0d:5b:0b:ca:8c:
        92:25:4a:a5:eb:2f:66:a3:89:7e:b3:c1:6d:1f:e4:33:60:be:
        2b:a1:26:7d:bc:9b:4f:49:8b:f0:61:7e:71:bc:25:17:46:ea:
        cd:db:da:cc:34:02:ba:38:5a:c2:9d:e1:50:6c:c8:40:a2:0f:
        4f:0d:6e:ec:a6:b7:37:a8:de:25:89:34:32:51:30:77:22:68:
        3c:dc:03:18:aa:26:5f:82:9a:a2:36:a4:68:cd:db:7f:85:d5:
        6e:3d:ca:6f:9d:f0:74:8d:0f:bc:02:58:f9:bc:4a:da:26:5c:
        51:34:1c:99:81:b8:12:cd:9c:79:3f:f3:5c:82:39:2b:35:25:
        04:0f:d1:66:96:1b:48:a5:bd:cc:a4:2d:8e:f1:6b:7d:a1:70:
        9a:39:2d:4b:6e:89:29:6d:db:79:33:61:62:28:64:46:10:60:
        50:04:c9:91
-----BEGIN CERTIFICATE-----
MIIDtDCCApygAwIBAgIBATANBgkqhkiG9w0BAQsFADAeMRwwGgYDVQQDDBNRVUlD
IFNlcnZlciBSb290IENBMB4XDTE2MDEyMTA2MDgzNVoXDTE2MDEyNDA2MDgzNVow
ZDELMAkGA1UEBhMCVVMxEzARBgNVBAgMCkNhbGlmb3JuaWExFjAUBgNVBAcMDU1v
dW50YWluIFZpZXcxFDASBgNVBAoMC1FVSUMgU2VydmVyMRIwEAYDVQQDDAkxMjcu
MC4wLjEwggEiMA0GCSqGSIb3DQEBAQUAA4IBDwAwggEKAoIBAQCy2930jBnTpCG6
FNJQjZHUeK1ZFGgX8ga2ftVM6Y5SMH0gH12dCCSzizuUAsOueKUmPjt8A1smH7/v
kQCaeiT/fhKj2dLv6xS4xl18kZ+ddxm3B4Nm5RsAbIHFaiT8UwJDLDeF1LMuhmnA
e76tH4IYAmKWSkmraCH/jTIUbYSJfVjet2aCeL6180ZMXL2eS4DxCXvCE4E5T9l4
3Cp3sNM45cr1PqjhFRTtaKfwOlkfEebnASAl7joMGvIq3Xuv4XVZb3zp0kxWgTiC
vURjQwIwntP1USlB8TYaPCxRC2LLN9+F/mtvEZlhvEfIZhxy7UQ5CXY54fb8erDo
3r7xkIYTAgMBAAGjgbYwgbMwDAYDVR0TAQH/BAIwADAdBgNVHQ4EFgQUSHxLgYNo
rBEYDfanSHQAai+TVXowHwYDVR0jBBgwFoAUzaQMPjzQ6W59Fn8CtIUlqSkAI4Mw
HQYDVR0lBBYwFAYIKwYBBQUHAwEGCCsGAQUFBwMCMEQGA1UdEQQ9MDuCD3d3dy5l
eGFtcGxlLm9yZ4IQbWFpbC5leGFtcGxlLm9yZ4IQbWFpbC5leGFtcGxlLmNvbYcE
fwAAATANBgkqhkiG9w0BAQsFAAOCAQEAQNi7bOhKtQxIXTSwEsk7MQx885Rn65ua
A687SWAAiGTbbFwxtquyRW1uVYsFZUYN16QypKUixR9703N3Q0tifyTL+N5NvAHf
Q+cVocrxn/n+hS4+YQ1bC8qMkiVKpesvZqOJfrPBbR/kM2C+K6EmfbybT0mL8GF+
cbwlF0bqzdvazDQCujhawp3hUGzIQKIPTw1u7Ka3N6jeJYk0MlEwdyJoPNwDGKom
X4KaojakaM3bf4XVbj3Kb53wdI0PvAJY+bxK2iZcUTQcmYG4Es2ceT/zXII5KzUl
BA/RZpYbSKW9zKQtjvFrfaFwmjktS26JKW3beTNhYihkRhBgUATJkQ==
-----END CERTIFICATE-----
